(lp1
((I150
I97
I23
tS'./collection/3110245423_511a413829_t.jpg'
p2
Ntp3
a((I184
I222
I238
tS'./collection/2520489651_378b83bec3_t.jpg'
p4
Ntp5
a((I59
I76
I100
tS'./collection/3508563643_56f88b8307_t.jpg'
p6
Ntp7
a((I129
I86
I55
tS'./collection/3820792462_7ab06cea5e_t.jpg'
p8
Ntp9
a((I134
I134
I132
tS'./collection/260924906_b1d2b841f3_t.jpg'
p10
Ntp11
a((I57
I99
I116
tS'./collection/314759955_8fcc9df04a_t.jpg'
p12
Ntp13
a((I210
I146
I107
tS'./collection/615464813_8bb7b8d726_t.jpg'
p14
Ntp15
a((I85
I82
I91
tS'./collection/514140861_2b42ae27ab_t.jpg'
p16
Ntp17
a((I144
I148
I152
tS'./collection/9205320_35a7f68635_t.jpg'
p18
Ntp19
a((I67
I93
I52
tS'./collection/3034979758_c3ce8255b3_t.jpg'
p20
Ntp21
a((I198
I190
I186
tS'./collection/676479931_6cab77c2af_t.jpg'
p22
Ntp23
a((I87
I24
I6
tS'./collection/2860777818_49a92254b2_t.jpg'
p24
Ntp25
a((I196
I192
I178
tS'./collection/3774427297_3d82e5d421_t.jpg'
p26
Ntp27
a((I120
I120
I120
tS'./collection/3316047047_e00baae7ba_t.jpg'
p28
Ntp29
a((I86
I59
I43
tS'./collection/2472256318_f5f9ccdfce_t.jpg'
p30
Ntp31
a((I130
I130
I130
tS'./collection/3844724619_b34d92c1c1_t.jpg'
p32
Ntp33
a((I91
I107
I59
tS'./collection/3769265935_7120cef036_t.jpg'
p34
Ntp35
a((I52
I153
I188
tS'./collection/260339799_cb0e41d7b8_t.jpg'
p36
Ntp37
a((I42
I38
I29
tS'./collection/2912383999_e9152c391e_t.jpg'
p38
Ntp39
a((I201
I190
I188
tS'./collection/2214210086_8843b07c11_t.jpg'
p40
Ntp41
a((I69
I49
I37
tS'./collection/3219992352_5479f6d5e5_t.jpg'
p42
Ntp43
a((I142
I132
I122
tS'./collection/3677844056_c4b8b8a762_t.jpg'
p44
Ntp45
a((I83
I72
I108
tS'./collection/3619094968_173348ecdd_t.jpg'
p46
Ntp47
a((I7
I64
I132
tS'./collection/2459534903_fb552595e8_t.jpg'
p48
Ntp49
a((I89
I108
I82
tS'./collection/161339012_cc9da66d1a_t.jpg'
p50
Ntp51
a((I133
I133
I133
tS'./collection/388634367_80fe1ff48f_t.jpg'
p52
Ntp53
a((I138
I122
I81
tS'./collection/466766477_2a3ae84ae3_t.jpg'
p54
Ntp55
a((I72
I71
I71
tS'./collection/2313044164_4a85ebe434_t.jpg'
p56
Ntp57
a((I74
I52
I120
tS'./collection/452630868_15acd7fcaa_t.jpg'
p58
Ntp59
a((I98
I98
I93
tS'./collection/1244103279_2802e8a1f6_t.jpg'
p60
Ntp61
a((I158
I105
I70
tS'./collection/3773990385_ba38a19538_t.jpg'
p62
Ntp63
a((I112
I118
I125
tS'./collection/767064305_496f5b1fbc_t.jpg'
p64
Ntp65
a((I127
I124
I106
tS'./collection/126872576_fd8d1df978_t.jpg'
p66
Ntp67
a((I167
I174
I181
tS'./collection/3214087924_064cb06d56_t.jpg'
p68
Ntp69
a((I160
I24
I18
tS'./collection/16800827_acf85b44d0_t.jpg'
p70
Ntp71
a((I33
I33
I23
tS'./collection/2179913094_3a1591008e_t.jpg'
p72
Ntp73
a((I153
I105
I54
tS'./collection/45749070_ccaeb055a2_t.jpg'
p74
Ntp75
a((I77
I143
I156
tS'./collection/563721200_2e55ded607_t.jpg'
p76
Ntp77
a((I76
I71
I69
tS'./collection/3650300011_f432978e03_t.jpg'
p78
Ntp79
a((I197
I153
I115
tS'./collection/3113297546_a0eea35050_t.jpg'
p80
Ntp81
a((I96
I152
I142
tS'./collection/2678198227_e52ca37418_t.jpg'
p82
Ntp83
a((I94
I130
I160
tS'./collection/2588851891_00aa77404e_t.jpg'
p84
Ntp85
a((I74
I33
I45
tS'./collection/2554054399_b5f47b6350_t.jpg'
p86
Ntp87
a((I76
I46
I28
tS'./collection/3112463903_8264e13820_t.jpg'
p88
Ntp89
a((I217
I217
I217
tS'./collection/3348614975_e3024ba08c_t.jpg'
p90
Ntp91
a((I36
I36
I36
tS'./collection/245404720_28a26a16a3_t.jpg'
p92
Ntp93
a((I106
I89
I84
tS'./collection/2394890598_10372da570_t.jpg'
p94
Ntp95
a((I35
I30
I38
tS'./collection/3804553528_38ae7f12e8_t.jpg'
p96
Ntp97
a((I178
I121
I35
tS'./collection/3111090260_8775804501_t.jpg'
p98
Ntp99
a((I88
I70
I48
tS'./collection/784521140_4818a08f79_t.jpg'
p100
Ntp101
a((I41
I99
I135
tS'./collection/474453302_96d89a2626_t.jpg'
p102
Ntp103
a((I77
I77
I89
tS'./collection/1803989751_a95237ef6b_t.jpg'
p104
Ntp105
a((I216
I215
I206
tS'./collection/1063503348_30c583919e_t.jpg'
p106
Ntp107
a((I75
I77
I65
tS'./collection/1935979708_647e2c8bc0_t.jpg'
p108
Ntp109
a((I51
I52
I22
tS'./collection/2409826347_7719f1b2f4_t.jpg'
p110
Ntp111
a((I207
I166
I106
tS'./collection/2213417137_bfb846f4ac_t.jpg'
p112
Ntp113
a((I75
I86
I81
tS'./collection/68350418_7d9c8c258d_t.jpg'
p114
Ntp115
a((I34
I34
I34
tS'./collection/3049997944_799be19605_t.jpg'
p116
Ntp117
a((I57
I41
I27
tS'./collection/3169826046_da632371b0_t.jpg'
p118
Ntp119
a((I101
I84
I90
tS'./collection/2676225297_344bcdd92b_t.jpg'
p120
Ntp121
a((I131
I119
I118
tS'./collection/69207686_3e6efcfdb1_t.jpg'
p122
Ntp123
a((I156
I122
I89
tS'./collection/251590139_233ec7719c_t.jpg'
p124
Ntp125
a((I52
I124
I108
tS'./collection/1043009734_b33c402c60_t.jpg'
p126
Ntp127
a((I87
I37
I44
tS'./collection/2343270813_ded60beffd_t.jpg'
p128
Ntp129
a((I81
I49
I22
tS'./collection/3842467122_b35bf39932_t.jpg'
p130
Ntp131
a((I203
I176
I128
tS'./collection/420880218_14c22ae400_t.jpg'
p132
Ntp133
a((I97
I116
I158
tS'./collection/3647923540_63f5dfcf1d_t.jpg'
p134
Ntp135
a((I118
I98
I85
tS'./collection/3780581909_86a21e14e5_t.jpg'
p136
Ntp137
a((I195
I201
I170
tS'./collection/3462579130_11e67dc3df_t.jpg'
p138
Ntp139
a((I127
I93
I53
tS'./collection/3709614101_3082a5d9d4_t.jpg'
p140
Ntp141
a((I69
I116
I134
tS'./collection/19243477_16258ee728_t.jpg'
p142
Ntp143
a((I222
I223
I216
tS'./collection/3256230048_88948720f4_t.jpg'
p144
Ntp145
a((I33
I28
I26
tS'./collection/1138995942_fa3a0d4457_t.jpg'
p146
Ntp147
a((I112
I113
I111
tS'./collection/2590866804_c263772ef0_t.jpg'
p148
Ntp149
a((I80
I93
I103
tS'./collection/2664654072_e25d5c49ae_t.jpg'
p150
Ntp151
a((I169
I130
I99
tS'./collection/2027423474_f7856e8425_t.jpg'
p152
Ntp153
a((I26
I183
I185
tS'./collection/2434085486_c4d18f84e9_t.jpg'
p154
Ntp155
a((I168
I155
I139
tS'./collection/2104527024_e1217b7666_t.jpg'
p156
Ntp157
a((I177
I122
I38
tS'./collection/3110273697_dbf9a02a98_t.jpg'
p158
Ntp159
a((I199
I120
I19
tS'./collection/3111105168_8141ce675d_t.jpg'
p160
Ntp161
a((I154
I137
I123
tS'./collection/1399185756_b9e17ea74a_t.jpg'
p162
Ntp163
a((I102
I106
I104
tS'./collection/2900867442_952235a04d_t.jpg'
p164
Ntp165
a((I246
I246
I246
tS'./collection/3210361772_aba384c470_t.jpg'
p166
Ntp167
a((I159
I138
I97
tS'./collection/3113274380_66d1588b94_t.jpg'
p168
Ntp169
a((I100
I32
I3
tS'./collection/101102958_16f11555a3_t.jpg'
p170
Ntp171
a((I144
I103
I78
tS'./collection/3112466593_6107e4fb4b_t.jpg'
p172
Ntp173
a((I123
I37
I15
tS'./collection/169897145_f4c504f338_t.jpg'
p174
Ntp175
a((I68
I34
I32
tS'./collection/3505873289_ebf505d053_t.jpg'
p176
Ntp177
a((I163
I36
I16
tS'./collection/127204780_3b09e45e08_t.jpg'
p178
Ntp179
a((I151
I99
I77
tS'./collection/3966842632_07ae7db4f0_t.jpg'
p180
Ntp181
a((I68
I68
I68
tS'./collection/3317824160_548c90ed9d_t.jpg'
p182
Ntp183
a((I167
I165
I162
tS'./collection/3158810304_ff989cd06c_t.jpg'
p184
Ntp185
a((I137
I93
I61
tS'./collection/3302355061_da4dd7714f_t.jpg'
p186
Ntp187
a((I43
I19
I8
tS'./collection/252163345_d50063daff_t.jpg'
p188
Ntp189
a((I75
I85
I87
tS'./collection/1270192913_41621261f8_t.jpg'
p190
Ntp191
a((I144
I145
I143
tS'./collection/28911835_064bcfa2f4_t.jpg'
p192
Ntp193
a((I86
I138
I130
tS'./collection/119364055_6b75b5c7d3_t.jpg'
p194
Ntp195
a((I129
I129
I118
tS'./collection/3358623236_149fa72bfd_t.jpg'
p196
Ntp197
a((I49
I126
I201
tS'./collection/3003636168_2a4b054fb9_t.jpg'
p198
Ntp199
a((I38
I38
I38
tS'./collection/2710315943_012a925956_t.jpg'
p200
Ntp201
a((I69
I62
I62
tS'./collection/3068160282_5be705b848_t.jpg'
p202
Ntp203
a((I109
I31
I10
tS'./collection/2846656409_dce204f0b0_t.jpg'
p204
Ntp205
a((I118
I66
I48
tS'./collection/3317010734_482aef2e42_t.jpg'
p206
Ntp207
a((I45
I46
I19
tS'./collection/1399806791_43a46229fc_t.jpg'
p208
Ntp209
a((I126
I153
I177
tS'./collection/3075138885_052d732dd5_t.jpg'
p210
Ntp211
a((I135
I145
I170
tS'./collection/194775213_9a0d2ac7e6_t.jpg'
p212
Ntp213
a((I171
I140
I102
tS'./collection/2213417041_e8ede2bb52_t.jpg'
p214
Ntp215
a((I104
I135
I165
tS'./collection/2605060584_559c1163d2_t.jpg'
p216
Ntp217
a((I172
I165
I164
tS'./collection/2523322166_cfa7a447bc_t.jpg'
p218
Ntp219
a((I153
I166
I168
tS'./collection/50229647_39bcd31c01_t.jpg'
p220
Ntp221
a((I21
I20
I21
tS'./collection/895015091_5bba88c4fa_t.jpg'
p222
Ntp223
a((I80
I101
I130
tS'./collection/387999605_88e2252b1e_t.jpg'
p224
Ntp225
a((I71
I54
I42
tS'./collection/3005405578_9ff94a8012_t.jpg'
p226
Ntp227
a((I186
I169
I167
tS'./collection/38983286_c7cfe752d7_t.jpg'
p228
Ntp229
a((I83
I34
I32
tS'./collection/2261984318_dc4e0e1922_t.jpg'
p230
Ntp231
a((I40
I81
I134
tS'./collection/3437792696_dbd5de15c7_t.jpg'
p232
Ntp233
a((I84
I51
I21
tS'./collection/2168464961_34e0e4792e_t.jpg'
p234
Ntp235
a((I165
I127
I105
tS'./collection/177260608_aefd44217a_t.jpg'
p236
Ntp237
a((I108
I86
I65
tS'./collection/3288867853_e3607b6167_t.jpg'
p238
Ntp239
a((I174
I174
I174
tS'./collection/2736149223_68e9d14532_t.jpg'
p240
Ntp241
a((I190
I191
I194
tS'./collection/3289579865_6c9aca61fc_t.jpg'
p242
Ntp243
a((I122
I112
I96
tS'./collection/3035261768_a936211b8c_t.jpg'
p244
Ntp245
a((I62
I52
I34
tS'./collection/3407202634_decf018b82_t.jpg'
p246
Ntp247
a((I194
I129
I24
tS'./collection/3110272147_97236e9737_t.jpg'
p248
Ntp249
a((I189
I178
I177
tS'./collection/2273650713_849e9c73eb_t.jpg'
p250
Ntp251
a((I78
I82
I77
tS'./collection/2099506100_0043f8de51_t.jpg'
p252
Ntp253
a((I124
I127
I89
tS'./collection/2237544494_ca8707b215_t.jpg'
p254
Ntp255
a((I161
I113
I37
tS'./collection/2146203740_2626444031_t.jpg'
p256
Ntp257
a((I108
I87
I56
tS'./collection/2172593572_dece494cb0_t.jpg'
p258
Ntp259
a((I173
I177
I178
tS'./collection/493056206_60332acd43_t.jpg'
p260
Ntp261
a((I124
I117
I102
tS'./collection/175295377_98fd1e4890_t.jpg'
p262
Ntp263
a((I36
I34
I33
tS'./collection/893796033_d8e8b8335d_t.jpg'
p264
Ntp265
a((I95
I90
I100
tS'./collection/154667867_ad21588802_t.jpg'
p266
Ntp267
a((I168
I168
I168
tS'./collection/2559422926_e51c1b492e_t.jpg'
p268
Ntp269
a((I26
I26
I26
tS'./collection/3486430785_011a134fd9_t.jpg'
p270
Ntp271
a((I150
I130
I85
tS'./collection/3652262528_ec150e5a8f_t.jpg'
p272
Ntp273
a((I104
I108
I114
tS'./collection/3197367120_b6e99e4ed6_t.jpg'
p274
Ntp275
a((I113
I113
I113
tS'./collection/3926497636_dc7018ca88_t.jpg'
p276
Ntp277
a((I167
I165
I160
tS'./collection/489297518_28beeeffa9_t.jpg'
p278
Ntp279
a((I154
I127
I85
tS'./collection/3866248959_a0b21d0435_t.jpg'
p280
Ntp281
a((I179
I221
I235
tS'./collection/2120106357_0b73dfb18c_t (1).jpg'
p282
Ntp283
a((I90
I90
I87
tS'./collection/178496937_a053b366db_t.jpg'
p284
Ntp285
a((I148
I133
I137
tS'./collection/412416275_5639126139_t.jpg'
p286
Ntp287
a((I153
I119
I121
tS'./collection/2340664539_5fe4148210_t.jpg'
p288
Ntp289
a((I157
I157
I156
tS'./collection/3009936969_24f688e10d_t.jpg'
p290
Ntp291
a((I148
I129
I105
tS'./collection/3112463635_a01b887868_t.jpg'
p292
Ntp293
a((I159
I188
I189
tS'./collection/1453997033_881abd7431_t.jpg'
p294
Ntp295
a((I84
I82
I76
tS'./collection/1164471524_f59ce4aa69_t.jpg'
p296
Ntp297
a((I21
I36
I57
tS'./collection/2687572980_d124cd223e_t.jpg'
p298
Ntp299
a((I200
I200
I200
tS'./collection/370393282_f0a5b306ac_t.jpg'
p300
Ntp301
a((I117
I106
I43
tS'./collection/3572560691_64f0c4446b_t.jpg'
p302
Ntp303
a((I28
I28
I28
tS'./collection/2279982897_72bf544e00_t.jpg'
p304
Ntp305
a((I178
I88
I37
tS'./collection/288389290_2ffdd890ec_t.jpg'
p306
Ntp307
a((I175
I175
I175
tS'./collection/2621298720_d00fea5947_t.jpg'
p308
Ntp309
a((I133
I121
I113
tS'./collection/1133860619_cadb45e122_t.jpg'
p310
Ntp311
a((I80
I96
I134
tS'./collection/2283754014_f1b4f59136_t.jpg'
p312
Ntp313
a((I194
I184
I169
tS'./collection/2773776799_2854dd4c97_t.jpg'
p314
Ntp315
a((I165
I127
I124
tS'./collection/2771724361_2bb7005b80_t.jpg'
p316
Ntp317
a((I101
I114
I132
tS'./collection/475549970_fdb568d945_t.jpg'
p318
Ntp319
a((I104
I76
I52
tS'./collection/2639647767_3c07a93d08_t.jpg'
p320
Ntp321
a((I89
I70
I43
tS'./collection/2824468269_0a2582315d_t.jpg'
p322
Ntp323
a((I141
I104
I77
tS'./collection/4408893_ec978db7e1_t.jpg'
p324
Ntp325
a((I129
I152
I169
tS'./collection/2907113524_e942209a75_t.jpg'
p326
Ntp327
a((I62
I124
I132
tS'./collection/396179226_f09242e21e_t.jpg'
p328
Ntp329
a((I79
I57
I37
tS'./collection/2247544732_2186fb7b71_t.jpg'
p330
Ntp331
a((I162
I151
I121
tS'./collection/2041540151_aae3a5e601_t.jpg'
p332
Ntp333
a((I179
I221
I235
tS'./collection/2120106357_0b73dfb18c_t.jpg'
p334
Ntp335
a((I147
I110
I100
tS'./collection/20558714_5f34491783_t.jpg'
p336
Ntp337
a((I51
I82
I80
tS'./collection/3259531515_a187c8cbae_t.jpg'
p338
Ntp339
a((I19
I90
I108
tS'./collection/3393041668_8a8144b240_t.jpg'
p340
Ntp341
a((I38
I38
I38
tS'./collection/3337725749_73b903b2c0_t.jpg'
p342
Ntp343
a((I150
I163
I119
tS'./collection/537088821_e6cba256da_t.jpg'
p344
Ntp345
a((I120
I120
I120
tS'./collection/3316047047_e00baae7ba_t (1).jpg'
p346
Ntp347
a((I156
I136
I93
tS'./collection/840084501_48963f1b6e_t.jpg'
p348
Ntp349
a((I138
I136
I137
tS'./collection/1857729657_df8a45ee52_t.jpg'
p350
Ntp351
a((I199
I120
I19
tS'./collection/3110243497_9b4a8a77cc_t.jpg'
p352
Ntp353
a((I107
I147
I141
tS'./collection/460950793_c1acbdbd4e_t.jpg'
p354
Ntp355
a((I36
I52
I41
tS'./collection/2353565033_893c5d37b0_t.jpg'
p356
Ntp357
a((I159
I155
I161
tS'./collection/2851866_057cf0239b_t.jpg'
p358
Ntp359
a((I21
I19
I20
tS'./collection/3631817617_53253a406c_t.jpg'
p360
Ntp361
a((I146
I130
I127
tS'./collection/2472630849_4bcbda19f6_t.jpg'
p362
Ntp363
a((I58
I18
I18
tS'./collection/469021232_339ffa2b5a_t.jpg'
p364
Ntp365
a((I48
I32
I19
tS'./collection/327208468_5ac15282c3_t.jpg'
p366
Ntp367
a((I115
I113
I116
tS'./collection/2612117640_e9db3042df_t.jpg'
p368
Ntp369
a((I107
I106
I110
tS'./collection/850683435_3ef098d69b_t.jpg'
p370
Ntp371
a((I145
I146
I120
tS'./collection/2808012861_1d61b8a714_t.jpg'
p372
Ntp373
a((I178
I121
I35
tS'./collection/3110274555_ab651f138e_t.jpg'
p374
Ntp375
a((I154
I137
I60
tS'./collection/2163463478_21e9e7f51a_t.jpg'
p376
Ntp377
a((I164
I134
I54
tS'./collection/3110255885_01043e46dc_t.jpg'
p378
Ntp379
a((I101
I57
I25
tS'./collection/97816723_077133aca9_t.jpg'
p380
Ntp381
a((I33
I90
I229
tS'./collection/297225713_0eb780edcd_t.jpg'
p382
Ntp383
a((I52
I52
I51
tS'./collection/2209131762_61e4cb2ca0_t.jpg'
p384
Ntp385
a((I107
I94
I88
tS'./collection/2782646509_940cd5c147_t.jpg'
p386
Ntp387
a((I183
I176
I170
tS'./collection/3096991823_39a2231311_t.jpg'
p388
Ntp389
a((I68
I34
I8
tS'./collection/616725420_2c1e6c5d53_t.jpg'
p390
Ntp391
a((I111
I111
I111
tS'./collection/2277376760_b1a10dd2e7_t.jpg'
p392
Ntp393
a((I177
I126
I81
tS'./collection/3321065250_2b6f58da5a_t.jpg'
p394
Ntp395
a((I228
I228
I228
tS'./collection/2595757192_82d9b81113_t.jpg'
p396
Ntp397
a((I118
I114
I107
tS'./collection/3677843804_bfb8aa0313_t.jpg'
p398
Ntp399
a((I114
I127
I112
tS'./collection/492141588_7eb9f37662_t.jpg'
p400
Ntp401
a((I64
I64
I64
tS'./collection/2284391797_1bae0006d7_t.jpg'
p402
Ntp403
a((I144
I35
I30
tS'./collection/195524819_1412287349_t.jpg'
p404
Ntp405
a((I166
I166
I165
tS'./collection/2968801286_85dd8d6987_t.jpg'
p406
Ntp407
a((I158
I141
I97
tS'./collection/3110283049_b7435d4a60_t.jpg'
p408
Ntp409
a((I231
I96
I114
tS'./collection/143260620_970ede5c98_t.jpg'
p410
Ntp411
a((I122
I170
I181
tS'./collection/124699866_c2edf70aec_t.jpg'
p412
Ntp413
a((I74
I97
I107
tS'./collection/2095529151_2355aaf26c_t.jpg'
p414
Ntp415
a((I130
I130
I130
tS'./collection/3844724619_b34d92c1c1_t (1).jpg'
p416
Ntp417
a((I88
I80
I72
tS'./collection/212024788_01c8e2ab4e_t.jpg'
p418
Ntp419
a((I108
I107
I108
tS'./collection/2784663574_567de20346_t.jpg'
p420
Ntp421
a((I138
I101
I69
tS'./collection/3480044839_a16b943285_t.jpg'
p422
Ntp423
a((I85
I93
I97
tS'./collection/512355415_3af881dc5d_t.jpg'
p424
Ntp425
a((I73
I107
I142
tS'./collection/1014432430_16b20c1b4a_t.jpg'
p426
Ntp427
a((I90
I90
I90
tS'./collection/2317733535_362e514d1d_t.jpg'
p428
Ntp429
a((I101
I122
I142
tS'./collection/164846917_a75d1daefd_t.jpg'
p430
Ntp431
a((I63
I106
I133
tS'./collection/2295304853_73a2d478a7_t.jpg'
p432
Ntp433
a((I71
I128
I173
tS'./collection/186271190_9500a03dc3_t.jpg'
p434
Ntp435
a((I52
I83
I122
tS'./collection/2381496523_76b7d705dd_t.jpg'
p436
Ntp437
a((I83
I124
I59
tS'./collection/1162719051_3815399455_t.jpg'
p438
Ntp439
a((I116
I76
I66
tS'./collection/273179913_608f795566_t.jpg'
p440
Ntp441
a((I96
I108
I80
tS'./collection/2770587462_afc896a397_t.jpg'
p442
Ntp443
a((I158
I124
I42
tS'./collection/2475125923_d5e0f5d8e6_t.jpg'
p444
Ntp445
a((I87
I53
I44
tS'./collection/3110257899_b6d7f898e0_t.jpg'
p446
Ntp447
a((I60
I52
I37
tS'./collection/3112448045_6b811329d4_t.jpg'
p448
Ntp449
a((I75
I50
I50
tS'./collection/2533499652_96cc80f4ed_t.jpg'
p450
Ntp451
a((I68
I68
I68
tS'./collection/2706412980_9252ffe795_t.jpg'
p452
Ntp453
a((I156
I167
I153
tS'./collection/886691785_bc9c51f5d0_t.jpg'
p454
Ntp455
a((I68
I155
I187
tS'./collection/1356536836_ad54b4896f_t.jpg'
p456
Ntp457
a((I47
I47
I47
tS'./collection/245404716_acd71f75fc_t.jpg'
p458
Ntp459
a((I132
I114
I117
tS'./collection/433262409_cdc4343d56_t.jpg'
p460
Ntp461
a((I125
I128
I137
tS'./collection/3778473630_21caea53c1_t.jpg'
p462
Ntp463
a((I139
I119
I121
tS'./collection/2912400558_20fdf915df_t.jpg'
p464
Ntp465
a((I147
I99
I46
tS'./collection/3111083266_b01d6f69aa_t.jpg'
p466
Ntp467
a((I168
I92
I78
tS'./collection/2994411873_c3b38f26da_t.jpg'
p468
Ntp469
a((I101
I141
I179
tS'./collection/2185911408_4db10eaa6f_t.jpg'
p470
Ntp471
a((I133
I130
I117
tS'./collection/3034479212_1848827fa7_t.jpg'
p472
Ntp473
a((I97
I75
I33
tS'./collection/3964626728_ca9e8955ed_t.jpg'
p474
Ntp475
a((I194
I129
I24
tS'./collection/3110246207_ba30dc4306_t.jpg'
p476
Ntp477
a((I43
I75
I119
tS'./collection/70421765_07da9a06d5_t.jpg'
p478
Ntp479
a((I101
I91
I89
tS'./collection/2223800261_c6eaa71651_t.jpg'
p480
Ntp481
a((I197
I67
I61
tS'./collection/2159453926_8aa759e8c2_t.jpg'
p482
Ntp483
a((I112
I112
I119
tS'./collection/1200664961_da5dd4e6b4_t.jpg'
p484
Ntp485
a((I181
I181
I181
tS'./collection/3326102446_d23a2cafc8_t.jpg'
p486
Ntp487
a((I115
I82
I45
tS'./collection/3345460189_987c166034_t.jpg'
p488
Ntp489
a((I135
I114
I112
tS'./collection/1534249682_8f87526523_t.jpg'
p490
Ntp491
a((I70
I95
I71
tS'./collection/3311045429_9ab0c7785c_t.jpg'
p492
Ntp493
a((I95
I84
I64
tS'./collection/3112445451_44eb89a13a_t.jpg'
p494
Ntp495
a((I101
I100
I104
tS'./collection/2309220670_d798afa9ed_t.jpg'
p496
Ntp497
a((I223
I144
I80
tS'./collection/2301129901_6fa32f4ea6_t.jpg'
p498
Ntp499
a((I111
I77
I45
tS'./collection/3797267555_db5c86b7dd_t.jpg'
p500
Ntp501
a((I63
I39
I34
tS'./collection/112316958_183c9fdfed_t.jpg'
p502
Ntp503
a((I226
I187
I176
tS'./collection/2587083299_bea9734632_t.jpg'
p504
Ntp505
a((I146
I140
I129
tS'./collection/2367463035_68ce4d9b60_t.jpg'
p506
Ntp507
a((I97
I176
I119
tS'./collection/2579055819_737fdbf6d9_t.jpg'
p508
Ntp509
a((I179
I209
I227
tS'./collection/2284555872_fe9662bede_t.jpg'
p510
Ntp511
a((I91
I95
I92
tS'./collection/1121875303_52b71bb7dd_t.jpg'
p512
Ntp513
a((I112
I99
I103
tS'./collection/291123842_a8fa61b030_t.jpg'
p514
Ntp515
a((I182
I202
I214
tS'./collection/194101682_d14853b1d5_t.jpg'
p516
Ntp517
a((I175
I170
I148
tS'./collection/2242630585_c431aa71dd_t.jpg'
p518
Ntp519
a((I109
I129
I140
tS'./collection/3199911707_02ea35503b_t.jpg'
p520
Ntp521
a((I97
I94
I88
tS'./collection/329806329_5f52299ca6_t.jpg'
p522
Ntp523
a((I165
I156
I140
tS'./collection/2165967905_bf08fa7f7c_t.jpg'
p524
Ntp525
a((I166
I151
I145
tS'./collection/905316267_ada5971310_t.jpg'
p526
Ntp527
a((I91
I110
I35
tS'./collection/2045735047_b864159e51_t.jpg'
p528
Ntp529
a((I58
I31
I21
tS'./collection/2605623669_8e287b3dec_t.jpg'
p530
Ntp531
a((I59
I49
I47
tS'./collection/3057780075_24629beaa0_t.jpg'
p532
Ntp533
a((I125
I134
I141
tS'./collection/3407015472_84f41da942_t.jpg'
p534
Ntp535
a.